(dp0
S'safety'
p1
(dp2
S'high'
p3
(dp4
S'persons'
p5
(dp6
S'2'
p7
S'unacc'
p8
sS'4'
p9
(dp10
S'buying'
p11
(dp12
S'high'
p13
(dp14
S'maint'
p15
(dp16
S'high'
p17
S'acc'
p18
sS'med'
p19
S'acc'
p20
sS'vhigh'
p21
S'unacc'
p22
sS'low'
p23
S'acc'
p24
sssS'med'
p25
(dp26
g15
(dp27
S'high'
p28
S'acc'
p29
sS'med'
p30
(dp31
S'lug_boot'
p32
(dp33
S'small'
p34
S'acc'
p35
sS'med'
p36
(dp37
S'doors'
p38
(dp39
g7
S'acc'
p40
sS'3'
p41
S'acc'
p42
sS'5more'
p43
S'vgood'
p44
sg9
S'vgood'
p45
sssS'big'
p46
S'vgood'
p47
sssS'vhigh'
p48
S'acc'
p49
sS'low'
p50
(dp51
g32
(dp52
S'small'
p53
S'good'
p54
sS'med'
p55
(dp56
g38
(dp57
g7
S'good'
p58
sg41
S'good'
p59
sS'5more'
p60
S'vgood'
p61
sg9
S'vgood'
p62
sssS'big'
p63
S'vgood'
p64
sssssS'vhigh'
p65
(dp66
g15
(dp67
S'high'
p68
S'unacc'
p69
sS'med'
p70
S'acc'
p71
sS'vhigh'
p72
S'unacc'
p73
sS'low'
p74
S'acc'
p75
sssS'low'
p76
(dp77
g15
(dp78
S'high'
p79
(dp80
g32
(dp81
S'small'
p82
S'acc'
p83
sS'med'
p84
(dp85
g38
(dp86
g7
S'acc'
p87
sS'5more'
p88
S'vgood'
p89
sg9
S'vgood'
p90
sssS'big'
p91
S'vgood'
p92
sssS'med'
p93
(dp94
g32
(dp95
S'small'
p96
S'good'
p97
sS'med'
p98
(dp99
g38
(dp100
g7
S'good'
p101
sg41
S'good'
p102
sS'5more'
p103
S'vgood'
p104
sg9
S'vgood'
p105
sssS'big'
p106
S'vgood'
p107
sssS'vhigh'
p108
S'acc'
p109
sS'low'
p110
(dp111
g32
(dp112
S'small'
p113
S'good'
p114
sS'med'
p115
(dp116
g38
(dp117
g7
S'good'
p118
sg41
S'good'
p119
sS'5more'
p120
S'vgood'
p121
sg9
S'vgood'
p122
sssS'big'
p123
S'vgood'
p124
sssssssS'more'
p125
(dp126
g11
(dp127
S'high'
p128
(dp129
g15
(dp130
S'high'
p131
(dp132
g38
(dp133
g7
(dp134
g32
(dp135
S'small'
p136
S'unacc'
p137
sS'med'
p138
S'acc'
p139
sS'big'
p140
S'acc'
p141
sssg41
S'acc'
p142
sS'5more'
p143
S'acc'
p144
sg9
S'acc'
p145
sssS'med'
p146
(dp147
g38
(dp148
g7
(dp149
g32
(dp150
S'small'
p151
S'unacc'
p152
sS'med'
p153
S'acc'
p154
sS'big'
p155
S'acc'
p156
sssg41
S'acc'
p157
sS'5more'
p158
S'acc'
p159
sg9
S'acc'
p160
sssS'vhigh'
p161
S'unacc'
p162
sS'low'
p163
(dp164
g38
(dp165
g7
(dp166
g32
(dp167
S'small'
p168
S'unacc'
p169
sS'med'
p170
S'acc'
p171
sssg41
S'acc'
p172
sS'5more'
p173
S'acc'
p174
sg9
S'acc'
p175
sssssS'med'
p176
(dp177
g15
(dp178
S'high'
p179
(dp180
g38
(dp181
g7
(dp182
g32
(dp183
S'small'
p184
S'unacc'
p185
sS'med'
p186
S'acc'
p187
sS'big'
p188
S'acc'
p189
sssg41
S'acc'
p190
sS'5more'
p191
S'acc'
p192
sg9
S'acc'
p193
sssS'med'
p194
(dp195
g32
(dp196
S'small'
p197
(dp198
g38
(dp199
g7
S'unacc'
p200
sg41
S'acc'
p201
sS'5more'
p202
S'acc'
p203
sg9
S'acc'
p204
sssS'med'
p205
(dp206
g38
(dp207
g7
S'acc'
p208
sg41
S'vgood'
p209
sS'5more'
p210
S'vgood'
p211
sg9
S'vgood'
p212
sssS'big'
p213
S'vgood'
p214
sssS'vhigh'
p215
S'acc'
p216
sS'low'
p217
(dp218
g32
(dp219
S'small'
p220
(dp221
g38
(dp222
g7
S'unacc'
p223
sg41
S'good'
p224
sS'5more'
p225
S'good'
p226
sg9
S'good'
p227
sssS'med'
p228
(dp229
g38
(dp230
g41
S'vgood'
p231
sg7
S'good'
p232
sg9
S'vgood'
p233
sssS'big'
p234
S'vgood'
p235
sssssS'vhigh'
p236
(dp237
g15
(dp238
S'high'
p239
S'unacc'
p240
sS'med'
p241
(dp242
g38
(dp243
g7
(dp244
g32
(dp245
S'small'
p246
S'unacc'
p247
sS'med'
p248
S'acc'
p249
sS'big'
p250
S'acc'
p251
sssg41
S'acc'
p252
sS'5more'
p253
S'acc'
p254
sg9
S'acc'
p255
sssS'vhigh'
p256
S'unacc'
p257
sS'low'
p258
(dp259
g38
(dp260
g7
(dp261
g32
(dp262
S'small'
p263
S'unacc'
p264
sS'med'
p265
S'acc'
p266
sS'big'
p267
S'acc'
p268
sssg41
S'acc'
p269
sS'5more'
p270
S'acc'
p271
sg9
S'acc'
p272
sssssS'low'
p273
(dp274
g15
(dp275
S'high'
p276
(dp277
g32
(dp278
S'small'
p279
(dp280
g38
(dp281
g7
S'unacc'
p282
sg41
S'acc'
p283
sS'5more'
p284
S'acc'
p285
sg9
S'acc'
p286
sssS'med'
p287
(dp288
g38
(dp289
g7
S'acc'
p290
sg41
S'vgood'
p291
sS'5more'
p292
S'vgood'
p293
sg9
S'vgood'
p294
sssS'big'
p295
S'vgood'
p296
sssS'med'
p297
(dp298
g32
(dp299
S'small'
p300
(dp301
g38
(dp302
g7
S'unacc'
p303
sg41
S'good'
p304
sS'5more'
p305
S'good'
p306
sg9
S'good'
p307
sssS'med'
p308
(dp309
g38
(dp310
g7
S'good'
p311
sg41
S'vgood'
p312
sS'5more'
p313
S'vgood'
p314
sg9
S'vgood'
p315
sssS'big'
p316
S'vgood'
p317
sssS'vhigh'
p318
(dp319
g38
(dp320
g7
(dp321
g32
(dp322
S'small'
p323
S'unacc'
p324
sS'med'
p325
S'acc'
p326
sS'big'
p327
S'acc'
p328
sssg41
S'acc'
p329
sS'5more'
p330
S'acc'
p331
sg9
S'acc'
p332
sssS'low'
p333
(dp334
g32
(dp335
S'small'
p336
(dp337
g38
(dp338
g7
S'unacc'
p339
sg41
S'good'
p340
sS'5more'
p341
S'good'
p342
sg9
S'good'
p343
sssS'med'
p344
(dp345
g38
(dp346
g7
S'good'
p347
sg41
S'vgood'
p348
sS'5more'
p349
S'vgood'
p350
sg9
S'vgood'
p351
sssS'big'
p352
S'vgood'
p353
sssssssssS'med'
p354
(dp355
g5
(dp356
g7
S'unacc'
p357
sg9
(dp358
g11
(dp359
S'high'
p360
(dp361
g32
(dp362
S'small'
p363
S'unacc'
p364
sS'med'
p365
(dp366
g38
(dp367
g7
S'unacc'
p368
sg41
S'unacc'
p369
sS'5more'
p370
(dp371
g15
(dp372
S'high'
p373
S'acc'
p374
sS'med'
p375
S'acc'
p376
sS'vhigh'
p377
S'unacc'
p378
sssg9
(dp379
g15
(dp380
S'high'
p381
S'acc'
p382
sS'med'
p383
S'acc'
p384
sS'vhigh'
p385
S'unacc'
p386
sS'low'
p387
S'acc'
p388
sssssS'big'
p389
(dp390
g15
(dp391
S'high'
p392
S'acc'
p393
sS'med'
p394
S'acc'
p395
sS'vhigh'
p396
S'unacc'
p397
sS'low'
p398
S'acc'
p399
sssssS'med'
p400
(dp401
g15
(dp402
S'high'
p403
(dp404
g32
(dp405
S'small'
p406
S'unacc'
p407
sS'med'
p408
(dp409
g38
(dp410
g7
S'unacc'
p411
sg41
S'unacc'
p412
sS'5more'
p413
S'acc'
p414
sg9
S'acc'
p415
sssS'big'
p416
S'acc'
p417
sssS'med'
p418
S'acc'
p419
sS'vhigh'
p420
(dp421
g32
(dp422
S'small'
p423
S'unacc'
p424
sS'med'
p425
(dp426
g38
(dp427
g7
S'unacc'
p428
sg41
S'unacc'
p429
sS'5more'
p430
S'acc'
p431
sg9
S'acc'
p432
sssS'big'
p433
S'acc'
p434
sssS'low'
p435
(dp436
g32
(dp437
S'small'
p438
S'acc'
p439
sS'med'
p440
(dp441
g38
(dp442
g7
S'acc'
p443
sg41
S'acc'
p444
sS'5more'
p445
S'good'
p446
sg9
S'good'
p447
sssS'big'
p448
S'good'
p449
sssssS'vhigh'
p450
(dp451
g15
(dp452
S'high'
p453
S'unacc'
p454
sS'med'
p455
(dp456
g32
(dp457
S'small'
p458
S'unacc'
p459
sS'med'
p460
(dp461
g38
(dp462
g7
S'unacc'
p463
sg41
S'unacc'
p464
sS'5more'
p465
S'acc'
p466
sg9
S'acc'
p467
sssS'big'
p468
S'acc'
p469
sssS'vhigh'
p470
S'unacc'
p471
sS'low'
p472
(dp473
g32
(dp474
S'small'
p475
S'unacc'
p476
sS'med'
p477
(dp478
g38
(dp479
g41
S'unacc'
p480
sg7
S'unacc'
p481
sS'5more'
p482
S'acc'
p483
sssS'big'
p484
S'acc'
p485
sssssS'low'
p486
(dp487
g15
(dp488
S'high'
p489
S'acc'
p490
sS'med'
p491
(dp492
g32
(dp493
S'small'
p494
S'acc'
p495
sS'med'
p496
(dp497
g38
(dp498
g7
S'acc'
p499
sg41
S'acc'
p500
sS'5more'
p501
S'good'
p502
sg9
S'good'
p503
sssS'big'
p504
S'good'
p505
sssS'vhigh'
p506
(dp507
g32
(dp508
S'small'
p509
S'unacc'
p510
sS'big'
p511
S'acc'
p512
sS'med'
p513
(dp514
g38
(dp515
g41
S'unacc'
p516
sS'5more'
p517
S'acc'
p518
sg9
S'acc'
p519
sssssS'low'
p520
(dp521
g32
(dp522
S'small'
p523
S'acc'
p524
sS'med'
p525
(dp526
g38
(dp527
g7
S'acc'
p528
sg41
S'acc'
p529
sS'5more'
p530
S'good'
p531
sg9
S'good'
p532
sssS'big'
p533
S'good'
p534
sssssssS'more'
p535
(dp536
g15
(dp537
S'high'
p538
(dp539
g11
(dp540
S'high'
p541
(dp542
g32
(dp543
S'small'
p544
S'unacc'
p545
sS'med'
p546
(dp547
g38
(dp548
g7
S'unacc'
p549
sg41
S'acc'
p550
sS'5more'
p551
S'acc'
p552
sg9
S'acc'
p553
sssS'big'
p554
S'acc'
p555
sssS'med'
p556
(dp557
g32
(dp558
S'small'
p559
S'unacc'
p560
sS'med'
p561
(dp562
g38
(dp563
g7
S'unacc'
p564
sg41
S'acc'
p565
sS'5more'
p566
S'acc'
p567
sg9
S'acc'
p568
sssS'big'
p569
S'acc'
p570
sssS'vhigh'
p571
S'unacc'
p572
sS'low'
p573
(dp574
g38
(dp575
g7
(dp576
g32
(dp577
S'small'
p578
S'unacc'
p579
sS'med'
p580
S'acc'
p581
sS'big'
p582
S'acc'
p583
sssg41
S'acc'
p584
sS'5more'
p585
S'acc'
p586
sg9
S'acc'
p587
sssssS'med'
p588
(dp589
g32
(dp590
S'small'
p591
(dp592
g11
(dp593
S'high'
p594
S'unacc'
p595
sS'med'
p596
(dp597
g38
(dp598
g7
S'unacc'
p599
sg41
S'acc'
p600
sS'5more'
p601
S'acc'
p602
sg9
S'acc'
p603
sssS'vhigh'
p604
S'unacc'
p605
sS'low'
p606
(dp607
g38
(dp608
g7
S'unacc'
p609
sg41
S'acc'
p610
sS'5more'
p611
S'acc'
p612
sg9
S'acc'
p613
sssssS'big'
p614
(dp615
g11
(dp616
S'high'
p617
S'acc'
p618
sS'med'
p619
S'acc'
p620
sS'vhigh'
p621
S'acc'
p622
sS'low'
p623
S'good'
p624
sssS'med'
p625
(dp626
g11
(dp627
S'high'
p628
(dp629
g38
(dp630
g7
S'unacc'
p631
sS'5more'
p632
S'acc'
p633
sg9
S'acc'
p634
sssS'med'
p635
S'acc'
p636
sS'vhigh'
p637
S'acc'
p638
sS'low'
p639
(dp640
g38
(dp641
g41
S'good'
p642
sg7
S'acc'
p643
sg9
S'good'
p644
sssssssS'vhigh'
p645
(dp646
g11
(dp647
S'high'
p648
S'unacc'
p649
sS'med'
p650
(dp651
g32
(dp652
S'small'
p653
S'unacc'
p654
sS'med'
p655
(dp656
g38
(dp657
g7
S'unacc'
p658
sg41
S'acc'
p659
sS'5more'
p660
S'acc'
p661
sg9
S'acc'
p662
sssS'big'
p663
S'acc'
p664
sssS'vhigh'
p665
S'unacc'
p666
sS'low'
p667
(dp668
g32
(dp669
S'small'
p670
S'unacc'
p671
sS'med'
p672
(dp673
g38
(dp674
g7
S'unacc'
p675
sg41
S'acc'
p676
sS'5more'
p677
S'acc'
p678
sg9
S'acc'
p679
sssS'big'
p680
S'acc'
p681
sssssS'low'
p682
(dp683
g11
(dp684
S'high'
p685
(dp686
g32
(dp687
S'small'
p688
S'unacc'
p689
sS'med'
p690
(dp691
g38
(dp692
g7
S'unacc'
p693
sg41
S'acc'
p694
sS'5more'
p695
S'acc'
p696
sg9
S'acc'
p697
sssS'big'
p698
S'acc'
p699
sssS'med'
p700
(dp701
g32
(dp702
S'small'
p703
S'acc'
p704
sS'med'
p705
(dp706
g38
(dp707
g7
S'acc'
p708
sg41
S'good'
p709
sS'5more'
p710
S'good'
p711
sg9
S'good'
p712
sssS'big'
p713
S'good'
p714
sssS'vhigh'
p715
(dp716
g32
(dp717
S'small'
p718
S'unacc'
p719
sS'med'
p720
(dp721
g38
(dp722
g7
S'unacc'
p723
sg41
S'acc'
p724
sS'5more'
p725
S'acc'
p726
sg9
S'acc'
p727
sssS'big'
p728
S'acc'
p729
sssS'low'
p730
(dp731
g32
(dp732
S'small'
p733
(dp734
g38
(dp735
g7
S'unacc'
p736
sS'5more'
p737
S'acc'
p738
sg9
S'acc'
p739
sssS'med'
p740
(dp741
g38
(dp742
g7
S'acc'
p743
sg41
S'good'
p744
sS'5more'
p745
S'good'
p746
sg9
S'good'
p747
sssS'big'
p748
S'good'
p749
sssssssssS'low'
p750
S'unacc'
p751
ss.